target datalayout = "e-m:e-p270:32:32-p271:32:32-p272:64:64-i64:64-i128:128-f80:128-n8:16:32:64-S128"
target triple = "x86_64-pc-linux-gnu"

%"struct.duckdb_yyjson::yyjson_alc" = type { ptr, ptr, ptr, ptr }
%"struct.duckdb_yyjson::yyjson_doc" = type { ptr, %"struct.duckdb_yyjson::yyjson_alc", i64, i64, ptr }
%"struct.duckdb_yyjson::yyjson_write_err" = type { i32, ptr }

@_ZN13duckdb_yyjsonL18YYJSON_DEFAULT_ALCE = internal constant %"struct.duckdb_yyjson::yyjson_alc" { ptr @_ZN13duckdb_yyjsonL14default_mallocEPvm, ptr @_ZN13duckdb_yyjsonL15default_reallocEPvS0_mm, ptr @_ZN13duckdb_yyjsonL12default_freeEPvS0_, ptr null }, align 8
@.str.42 = private unnamed_addr constant [20 x i8] c"input fp is invalid\00", align 1
@.str.95 = private unnamed_addr constant [20 x i8] c"file writing failed\00", align 1

; Function Attrs: mustprogress uwtable
define internal noundef zeroext i1 @_ZN13duckdb_yyjsonL15write_dat_to_fpEP8_IO_FILEPhmPNS_16yyjson_write_errE(ptr noundef %0, ptr noundef %1, i64 noundef %2, ptr noundef %3) #1 {
  %5 = alloca i1, align 1
  %6 = alloca ptr, align 8
  %7 = alloca ptr, align 8
  %8 = alloca i64, align 8
  %9 = alloca ptr, align 8
  store ptr %0, ptr %6, align 8, !tbaa !231
  store ptr %1, ptr %7, align 8, !tbaa !92
  store i64 %2, ptr %8, align 8, !tbaa !9
  store ptr %3, ptr %9, align 8, !tbaa !247
  %10 = load ptr, ptr %7, align 8, !tbaa !92
  %11 = load i64, ptr %8, align 8, !tbaa !9
  %12 = load ptr, ptr %6, align 8, !tbaa !231
  %13 = call i64 @fwrite(ptr noundef %10, i64 noundef %11, i64 noundef 1, ptr noundef %12)
  %14 = icmp ne i64 %13, 1
  br i1 %14, label %15, label %20

15:                                               ; preds = %4
  %16 = load ptr, ptr %9, align 8, !tbaa !247
  %17 = getelementptr inbounds nuw %"struct.duckdb_yyjson::yyjson_write_err", ptr %16, i32 0, i32 1
  store ptr @.str.95, ptr %17, align 8, !tbaa !249
  %18 = load ptr, ptr %9, align 8, !tbaa !247
  %19 = getelementptr inbounds nuw %"struct.duckdb_yyjson::yyjson_write_err", ptr %18, i32 0, i32 0
  store i32 6, ptr %19, align 8, !tbaa !251
  store i1 false, ptr %5, align 1
  br label %21

20:                                               ; preds = %4
  store i1 true, ptr %5, align 1
  br label %21

21:                                               ; preds = %20, %15
  %22 = load i1, ptr %5, align 1
  ret i1 %22
}

; Function Attrs: mustprogress uwtable
define noundef zeroext i1 @_ZN13duckdb_yyjson19yyjson_val_write_fpEP8_IO_FILEPKNS_10yyjson_valEjPKNS_10yyjson_alcEPNS_16yyjson_write_errE(ptr noundef %0, ptr noundef %1, i32 noundef %2, ptr noundef %3, ptr noundef %4) #1 {
  %6 = alloca i1, align 1
  %7 = alloca ptr, align 8
  %8 = alloca ptr, align 8
  %9 = alloca i32, align 4
  %10 = alloca ptr, align 8
  %11 = alloca ptr, align 8
  %12 = alloca %"struct.duckdb_yyjson::yyjson_write_err", align 8
  %13 = alloca ptr, align 8
  %14 = alloca i64, align 8
  %15 = alloca ptr, align 8
  %16 = alloca i8, align 1
  %17 = alloca i32, align 4
  store ptr %0, ptr %7, align 8, !tbaa !231
  store ptr %1, ptr %8, align 8, !tbaa !86
  store i32 %2, ptr %9, align 4, !tbaa !198
  store ptr %3, ptr %10, align 8, !tbaa !3
  store ptr %4, ptr %11, align 8, !tbaa !247
  call void @llvm.lifetime.start.p0(i64 16, ptr %12) #15
  call void @llvm.lifetime.start.p0(i64 8, ptr %13) #15
  call void @llvm.lifetime.start.p0(i64 8, ptr %14) #15
  store i64 0, ptr %14, align 8, !tbaa !9
  call void @llvm.lifetime.start.p0(i64 8, ptr %15) #15
  %18 = load ptr, ptr %8, align 8, !tbaa !86
  %19 = ptrtoint ptr %18 to i64
  %20 = inttoptr i64 %19 to ptr
  store ptr %20, ptr %15, align 8, !tbaa !86
  call void @llvm.lifetime.start.p0(i64 1, ptr %16) #15
  %21 = load ptr, ptr %10, align 8, !tbaa !3
  %22 = icmp ne ptr %21, null
  br i1 %22, label %23, label %25

23:                                               ; preds = %5
  %24 = load ptr, ptr %10, align 8, !tbaa !3
  br label %26

25:                                               ; preds = %5
  br label %26

26:                                               ; preds = %25, %23
  %27 = phi ptr [ %24, %23 ], [ @_ZN13duckdb_yyjsonL18YYJSON_DEFAULT_ALCE, %25 ]
  store ptr %27, ptr %10, align 8, !tbaa !3
  %28 = load ptr, ptr %11, align 8, !tbaa !247
  %29 = icmp ne ptr %28, null
  br i1 %29, label %30, label %32

30:                                               ; preds = %26
  %31 = load ptr, ptr %11, align 8, !tbaa !247
  br label %33

32:                                               ; preds = %26
  br label %33

33:                                               ; preds = %32, %30
  %34 = phi ptr [ %31, %30 ], [ %12, %32 ]
  store ptr %34, ptr %11, align 8, !tbaa !247
  %35 = load ptr, ptr %7, align 8, !tbaa !231
  %36 = icmp ne ptr %35, null
  %37 = xor i1 %36, true
  %38 = xor i1 %37, true
  %39 = xor i1 %38, true
  %40 = zext i1 %39 to i64
  %41 = call i64 @llvm.expect.i64(i64 %40, i64 0)
  %42 = icmp ne i64 %41, 0
  br i1 %42, label %43, label %48

43:                                               ; preds = %33
  %44 = load ptr, ptr %11, align 8, !tbaa !247
  %45 = getelementptr inbounds nuw %"struct.duckdb_yyjson::yyjson_write_err", ptr %44, i32 0, i32 1
  store ptr @.str.42, ptr %45, align 8, !tbaa !249
  %46 = load ptr, ptr %11, align 8, !tbaa !247
  %47 = getelementptr inbounds nuw %"struct.duckdb_yyjson::yyjson_write_err", ptr %46, i32 0, i32 0
  store i32 1, ptr %47, align 8, !tbaa !251
  store i1 false, ptr %6, align 1
  store i32 1, ptr %17, align 4
  br label %79

48:                                               ; preds = %33
  %49 = load ptr, ptr %15, align 8, !tbaa !86
  %50 = load i32, ptr %9, align 4, !tbaa !198
  %51 = load ptr, ptr %10, align 8, !tbaa !3
  %52 = load ptr, ptr %11, align 8, !tbaa !247
  %53 = call noundef ptr @_ZN13duckdb_yyjson21yyjson_val_write_optsEPKNS_10yyjson_valEjPKNS_10yyjson_alcEPmPNS_16yyjson_write_errE(ptr noundef %49, i32 noundef %50, ptr noundef %51, ptr noundef %14, ptr noundef %52)
  store ptr %53, ptr %13, align 8, !tbaa !92
  %54 = load ptr, ptr %13, align 8, !tbaa !92
  %55 = icmp ne ptr %54, null
  %56 = xor i1 %55, true
  %57 = xor i1 %56, true
  %58 = xor i1 %57, true
  %59 = zext i1 %58 to i64
  %60 = call i64 @llvm.expect.i64(i64 %59, i64 0)
  %61 = icmp ne i64 %60, 0
  br i1 %61, label %62, label %63

62:                                               ; preds = %48
  store i1 false, ptr %6, align 1
  store i32 1, ptr %17, align 4
  br label %79

63:                                               ; preds = %48
  %64 = load ptr, ptr %7, align 8, !tbaa !231
  %65 = load ptr, ptr %13, align 8, !tbaa !92
  %66 = load i64, ptr %14, align 8, !tbaa !9
  %67 = load ptr, ptr %11, align 8, !tbaa !247
  %68 = call noundef zeroext i1 @_ZN13duckdb_yyjsonL15write_dat_to_fpEP8_IO_FILEPhmPNS_16yyjson_write_errE(ptr noundef %64, ptr noundef %65, i64 noundef %66, ptr noundef %67)
  %69 = zext i1 %68 to i8
  store i8 %69, ptr %16, align 1, !tbaa !98
  %70 = load ptr, ptr %10, align 8, !tbaa !3
  %71 = getelementptr inbounds nuw %"struct.duckdb_yyjson::yyjson_alc", ptr %70, i32 0, i32 2
  %72 = load ptr, ptr %71, align 8, !tbaa !25
  %73 = load ptr, ptr %10, align 8, !tbaa !3
  %74 = getelementptr inbounds nuw %"struct.duckdb_yyjson::yyjson_alc", ptr %73, i32 0, i32 3
  %75 = load ptr, ptr %74, align 8, !tbaa !26
  %76 = load ptr, ptr %13, align 8, !tbaa !92
  call void %72(ptr noundef %75, ptr noundef %76)
  %77 = load i8, ptr %16, align 1, !tbaa !98, !range !100, !noundef !101
  %78 = trunc i8 %77 to i1
  store i1 %78, ptr %6, align 1
  store i32 1, ptr %17, align 4
  br label %79

79:                                               ; preds = %63, %62, %43
  call void @llvm.lifetime.end.p0(i64 1, ptr %16) #15
  call void @llvm.lifetime.end.p0(i64 8, ptr %15) #15
  call void @llvm.lifetime.end.p0(i64 8, ptr %14) #15
  call void @llvm.lifetime.end.p0(i64 8, ptr %13) #15
  call void @llvm.lifetime.end.p0(i64 16, ptr %12) #15
  %80 = load i1, ptr %6, align 1
  ret i1 %80
}

; Function Attrs: mustprogress uwtable
define noundef zeroext i1 @_ZN13duckdb_yyjson15yyjson_write_fpEP8_IO_FILEPKNS_10yyjson_docEjPKNS_10yyjson_alcEPNS_16yyjson_write_errE(ptr noundef %0, ptr noundef %1, i32 noundef %2, ptr noundef %3, ptr noundef %4) #1 {
  %6 = alloca ptr, align 8
  %7 = alloca ptr, align 8
  %8 = alloca i32, align 4
  %9 = alloca ptr, align 8
  %10 = alloca ptr, align 8
  %11 = alloca ptr, align 8
  store ptr %0, ptr %6, align 8, !tbaa !231
  store ptr %1, ptr %7, align 8, !tbaa !80
  store i32 %2, ptr %8, align 4, !tbaa !198
  store ptr %3, ptr %9, align 8, !tbaa !3
  store ptr %4, ptr %10, align 8, !tbaa !247
  call void @llvm.lifetime.start.p0(i64 8, ptr %11) #15
  %12 = load ptr, ptr %7, align 8, !tbaa !80
  %13 = icmp ne ptr %12, null
  br i1 %13, label %14, label %18

14:                                               ; preds = %5
  %15 = load ptr, ptr %7, align 8, !tbaa !80
  %16 = getelementptr inbounds nuw %"struct.duckdb_yyjson::yyjson_doc", ptr %15, i32 0, i32 0
  %17 = load ptr, ptr %16, align 8, !tbaa !82
  br label %19

18:                                               ; preds = %5
  br label %19

19:                                               ; preds = %18, %14
  %20 = phi ptr [ %17, %14 ], [ null, %18 ]
  store ptr %20, ptr %11, align 8, !tbaa !86
  %21 = load ptr, ptr %6, align 8, !tbaa !231
  %22 = load ptr, ptr %11, align 8, !tbaa !86
  %23 = load i32, ptr %8, align 4, !tbaa !198
  %24 = load ptr, ptr %9, align 8, !tbaa !3
  %25 = load ptr, ptr %10, align 8, !tbaa !247
  %26 = call noundef zeroext i1 @_ZN13duckdb_yyjson19yyjson_val_write_fpEP8_IO_FILEPKNS_10yyjson_valEjPKNS_10yyjson_alcEPNS_16yyjson_write_errE(ptr noundef %21, ptr noundef %22, i32 noundef %23, ptr noundef %24, ptr noundef %25)
  call void @llvm.lifetime.end.p0(i64 8, ptr %11) #15
  ret i1 %26
}