; Function Attrs: mustprogress uwtable
define noundef zeroext i1 @_ZN13duckdb_yyjson15yyjson_write_fpEP8_IO_FILEPKNS_10yyjson_docEjPKNS_10yyjson_alcEPNS_16yyjson_write_errE(ptr noundef captures(address_is_null) %0, ptr noundef readonly captures(address_is_null) %1, i32 noundef %2, ptr noundef captures(address_is_null) %3, ptr noundef captures(address_is_null) %4) local_unnamed_addr #10 {
  %6 = alloca %"struct.duckdb_yyjson::yyjson_write_err", align 8
  %7 = alloca i64, align 8
  %.not = icmp eq ptr %1, null
  br i1 %.not, label %10, label %8

8:                                                ; preds = %5
  %9 = load ptr, ptr %1, align 8, !tbaa !69
  br label %10

10:                                               ; preds = %5, %8
  %11 = phi ptr [ %9, %8 ], [ null, %5 ]
  call void @llvm.lifetime.start.p0(i64 16, ptr nonnull %6) #31
  call void @llvm.lifetime.start.p0(i64 8, ptr nonnull %7) #31
  store i64 0, ptr %7, align 8, !tbaa !85
  %.not.i = icmp eq ptr %3, null
  %12 = select i1 %.not.i, ptr @_ZN13duckdb_yyjsonL18YYJSON_DEFAULT_ALCE, ptr %3
  %.not20.i = icmp eq ptr %4, null
  %13 = select i1 %.not20.i, ptr %6, ptr %4
  %.not21.i = icmp eq ptr %0, null
  br i1 %.not21.i, label %14, label %15, !prof !3

14:                                               ; preds = %10
  %.sroa.sel.v.sroa.sel.v.i.sroa.sel.v.sroa.sel.v.sroa.sel.v = select i1 %.not20.i, ptr %6, ptr %4
  %.sroa.sel.v.sroa.sel.v.i.sroa.sel.v.sroa.sel.v.sroa.sel = getelementptr inbounds nuw i8, ptr %.sroa.sel.v.sroa.sel.v.i.sroa.sel.v.sroa.sel.v.sroa.sel.v, i64 8
  store ptr @.str.42, ptr %.sroa.sel.v.sroa.sel.v.i.sroa.sel.v.sroa.sel.v.sroa.sel, align 8, !tbaa !207
  store i32 1, ptr %13, align 8, !tbaa !209
  br label %_ZN13duckdb_yyjson19yyjson_val_write_fpEP8_IO_FILEPKNS_10yyjson_valEjPKNS_10yyjson_alcEPNS_16yyjson_write_errE.exit

15:                                               ; preds = %10
  %16 = call noundef ptr @_ZN13duckdb_yyjson21yyjson_val_write_optsEPKNS_10yyjson_valEjPKNS_10yyjson_alcEPmPNS_16yyjson_write_errE(ptr noundef %11, i32 noundef %2, ptr noundef nonnull %12, ptr noundef nonnull %7, ptr noundef nonnull %13)
  %.not22.i = icmp eq ptr %16, null
  br i1 %.not22.i, label %_ZN13duckdb_yyjson19yyjson_val_write_fpEP8_IO_FILEPKNS_10yyjson_valEjPKNS_10yyjson_alcEPNS_16yyjson_write_errE.exit, label %17, !prof !3

17:                                               ; preds = %15
  %18 = load i64, ptr %7, align 8, !tbaa !85
  %19 = call i64 @fwrite(ptr noundef nonnull %16, i64 noundef %18, i64 noundef 1, ptr noundef nonnull %0)
  %.not.i.i = icmp eq i64 %19, 1
  br i1 %.not.i.i, label %_ZN13duckdb_yyjsonL15write_dat_to_fpEP8_IO_FILEPhmPNS_16yyjson_write_errE.exit.i, label %20

20:                                               ; preds = %17
  %.sroa.sel26.v.sroa.sel.v.i.sroa.sel.v.sroa.sel.v.sroa.sel.v = select i1 %.not20.i, ptr %6, ptr %4
  %.sroa.sel26.v.sroa.sel.v.i.sroa.sel.v.sroa.sel.v.sroa.sel = getelementptr inbounds nuw i8, ptr %.sroa.sel26.v.sroa.sel.v.i.sroa.sel.v.sroa.sel.v.sroa.sel.v, i64 8
  store ptr @.str.95, ptr %.sroa.sel26.v.sroa.sel.v.i.sroa.sel.v.sroa.sel.v.sroa.sel, align 8, !tbaa !207
  store i32 6, ptr %13, align 8, !tbaa !209
  br label %_ZN13duckdb_yyjsonL15write_dat_to_fpEP8_IO_FILEPhmPNS_16yyjson_write_errE.exit.i

_ZN13duckdb_yyjsonL15write_dat_to_fpEP8_IO_FILEPhmPNS_16yyjson_write_errE.exit.i: ; preds = %20, %17
  %21 = getelementptr inbounds nuw i8, ptr %12, i64 16
  %22 = load ptr, ptr %21, align 8, !tbaa !20
  %23 = getelementptr inbounds nuw i8, ptr %12, i64 24
  %24 = load ptr, ptr %23, align 8, !tbaa !21
  call void %22(ptr noundef %24, ptr noundef nonnull %16)
  br label %_ZN13duckdb_yyjson19yyjson_val_write_fpEP8_IO_FILEPKNS_10yyjson_valEjPKNS_10yyjson_alcEPNS_16yyjson_write_errE.exit

_ZN13duckdb_yyjson19yyjson_val_write_fpEP8_IO_FILEPKNS_10yyjson_valEjPKNS_10yyjson_alcEPNS_16yyjson_write_errE.exit: ; preds = %14, %15, %_ZN13duckdb_yyjsonL15write_dat_to_fpEP8_IO_FILEPhmPNS_16yyjson_write_errE.exit.i
  %.0.i = phi i1 [ false, %14 ], [ %.not.i.i, %_ZN13duckdb_yyjsonL15write_dat_to_fpEP8_IO_FILEPhmPNS_16yyjson_write_errE.exit.i ], [ false, %15 ]
  call void @llvm.lifetime.end.p0(i64 8, ptr nonnull %7) #31
  call void @llvm.lifetime.end.p0(i64 16, ptr nonnull %6) #31
  ret i1 %.0.i
}